; Function Attrs: nounwind uwtable
define ptr @l_Lake_MainM_runLoggerIO___rarg___boxed(ptr noundef %0, ptr noundef %1, ptr noundef %2, ptr noundef %3, ptr noundef %4) #0 {
  %6 = ptrtoint ptr %1 to i64
  %7 = lshr i64 %6, 1
  %8 = trunc i64 %7 to i8
  %9 = and i64 %6, 1
  %.not = icmp eq i64 %9, 0
  br i1 %.not, label %10, label %lean_dec.exit11

10:                                               ; preds = %5
  %11 = load i32, ptr %1, align 4, !tbaa !4
  %12 = icmp sgt i32 %11, 1
  br i1 %12, label %13, label %15, !prof !13

13:                                               ; preds = %10
  %14 = add nsw i32 %11, -1
  store i32 %14, ptr %1, align 4, !tbaa !4
  br label %lean_dec.exit11

15:                                               ; preds = %10
  %.not.i = icmp eq i32 %11, 0
  br i1 %.not.i, label %lean_dec.exit11, label %16

16:                                               ; preds = %15
  tail call void @lean_dec_ref_cold(ptr noundef nonnull %1) #3
  br label %lean_dec.exit11

lean_dec.exit11:                                  ; preds = %16, %15, %13, %5
  %17 = ptrtoint ptr %2 to i64
  %18 = lshr i64 %17, 1
  %19 = trunc i64 %18 to i8
  %20 = and i64 %17, 1
  %.not16 = icmp eq i64 %20, 0
  br i1 %.not16, label %21, label %lean_dec.exit10

21:                                               ; preds = %lean_dec.exit11
  %22 = load i32, ptr %2, align 4, !tbaa !4
  %23 = icmp sgt i32 %22, 1
  br i1 %23, label %24, label %26, !prof !13

24:                                               ; preds = %21
  %25 = add nsw i32 %22, -1
  store i32 %25, ptr %2, align 4, !tbaa !4
  br label %lean_dec.exit10

26:                                               ; preds = %21
  %.not.i12 = icmp eq i32 %22, 0
  br i1 %.not.i12, label %lean_dec.exit10, label %27

27:                                               ; preds = %26
  tail call void @lean_dec_ref_cold(ptr noundef nonnull %2) #3
  br label %lean_dec.exit10

lean_dec.exit10:                                  ; preds = %27, %26, %24, %lean_dec.exit11
  %28 = tail call ptr @l_Lake_MainM_runLoggerIO___rarg(ptr noundef %0, i8 noundef zeroext %8, i8 noundef zeroext %19, ptr noundef %3, ptr noundef %4)
  %29 = ptrtoint ptr %3 to i64
  %30 = and i64 %29, 1
  %.not17 = icmp eq i64 %30, 0
  br i1 %.not17, label %31, label %lean_dec.exit

31:                                               ; preds = %lean_dec.exit10
  %32 = load i32, ptr %3, align 4, !tbaa !4
  %33 = icmp sgt i32 %32, 1
  br i1 %33, label %34, label %36, !prof !13

34:                                               ; preds = %31
  %35 = add nsw i32 %32, -1
  store i32 %35, ptr %3, align 4, !tbaa !4
  br label %lean_dec.exit

36:                                               ; preds = %31
  %.not.i14 = icmp eq i32 %32, 0
  br i1 %.not.i14, label %lean_dec.exit, label %37

37:                                               ; preds = %36
  tail call void @lean_dec_ref_cold(ptr noundef nonnull %3) #3
  br label %lean_dec.exit

lean_dec.exit:                                    ; preds = %37, %36, %34, %lean_dec.exit10
  ret ptr %28
}